target datalayout = "e-m:e-p270:32:32-p271:32:32-p272:64:64-i64:64-i128:128-f80:128-n8:16:32:64-S128"
target triple = "x86_64-pc-linux-gnu"

%struct._zend_executor_globals = type { %struct._zval_struct, %struct._zval_struct, [32 x ptr], ptr, ptr, %struct._zend_array, %struct._zend_array, ptr, i32, i32, ptr, ptr, ptr, ptr, ptr, ptr, i64, ptr, ptr, i32, i32, i64, i32, i32, i32, i8, i8, %struct.zend_atomic_bool_s, %struct.zend_atomic_bool_s, ptr, i64, ptr, ptr, %struct._zend_array, %struct._zend_array, i32, i8, %struct._zval_struct, %struct._zval_struct, %struct._zend_stack, %struct._zend_stack, %struct._zend_stack, ptr, i32, i32, i64, ptr, ptr, ptr, %struct._zend_objects_store, ptr, ptr, ptr, [3 x %struct._zend_op], ptr, i8, i8, i64, i32, i32, ptr, [16 x %struct._HashTableIterator], ptr, %union._zend_function, %struct._zend_op, %struct._zend_array, i64, %struct.zend_get_gc_buffer, ptr, ptr, ptr, i64, i8, i32, ptr, ptr, i64, %struct._zend_call_stack, i64, i64, [6 x ptr] }
%struct.zend_atomic_bool_s = type { i8 }
%struct._zval_struct = type { %union._zend_value, %union.anon, %union.anon.2 }
%union._zend_value = type { i64 }
%union.anon = type { i32 }
%union.anon.2 = type { i32 }
%struct._zend_stack = type { i32, i32, i32, ptr }
%struct._zend_objects_store = type { ptr, i32, i32, i32 }
%struct._HashTableIterator = type { ptr, i32, i32 }
%union._zend_function = type { %struct._zend_op_array }
%struct._zend_op_array = type { i8, [3 x i8], i32, ptr, ptr, ptr, i32, i32, ptr, ptr, ptr, ptr, i32, i32, i32, i32, ptr, ptr, ptr, ptr, ptr, i32, i32, ptr, ptr, ptr, i32, i32, i32, i32, ptr, ptr, [6 x ptr] }
%struct._zend_op = type { ptr, %union._znode_op, %union._znode_op, %union._znode_op, i32, i32, i8, i8, i8, i8 }
%union._znode_op = type { i32 }
%struct._zend_array = type { %struct._zend_refcounted_h, %union.anon.4, i32, %union.anon.6, i32, i32, i32, i32, i64, ptr }
%struct._zend_refcounted_h = type { i32, %union.anon.3 }
%union.anon.3 = type { i32 }
%union.anon.4 = type { i32 }
%union.anon.6 = type { ptr }
%struct.zend_get_gc_buffer = type { ptr, ptr, ptr }
%struct._zend_call_stack = type { ptr, i64 }
%struct._zend_execute_data = type { ptr, ptr, ptr, ptr, %struct._zval_struct, ptr, ptr, ptr, ptr }
%struct._zend_string = type { %struct._zend_refcounted_h, i64, i64, [1 x i8] }
%struct._dom_object = type { ptr, ptr, ptr, %struct._zend_object }
%struct._zend_object = type { %struct._zend_refcounted_h, i32, ptr, ptr, ptr, [1 x %struct._zval_struct] }
%struct._zend_class_entry = type { i8, ptr, %union.anon.8, i32, i32, i32, i32, ptr, ptr, ptr, %struct._zend_array, %struct._zend_array, %struct._zend_array, ptr, ptr, ptr, ptr, ptr, ptr, ptr, ptr, ptr, ptr, ptr, ptr, ptr, ptr, ptr, ptr, ptr, ptr, ptr, %union.anon.9, ptr, ptr, ptr, ptr, i32, i32, %union.anon.10, ptr, ptr, ptr, ptr, i32, ptr, ptr, %union.anon.11 }
%union.anon.8 = type { ptr }
%union.anon.9 = type { ptr }
%union.anon.10 = type { ptr }
%union.anon.11 = type { %struct.anon.12 }
%struct.anon.12 = type { ptr, i32, i32 }
%struct._php_libxml_node_ptr = type { ptr, i32, ptr }

@executor_globals = external global %struct._zend_executor_globals, align 8
@xmlFree = external global ptr, align 8
@.str.5 = private unnamed_addr constant [18 x i8] c"Couldn't fetch %s\00", align 1
@.str.11 = private unnamed_addr constant [4 x i8] c"s!s\00", align 1
@.str.12 = private unnamed_addr constant [30 x i8] c"http://www.w3.org/2000/xmlns/\00", align 1

; Function Attrs: nounwind uwtable
define internal ptr @php_dom_obj_from_obj(ptr noundef %0) #0 {
  %2 = alloca ptr, align 8
  store ptr %0, ptr %2, align 8
  %3 = load ptr, ptr %2, align 8
  %4 = getelementptr inbounds i8, ptr %3, i64 -24
  ret ptr %4
}

; Function Attrs: nounwind uwtable
define hidden void @zim_DOMElement_hasAttributeNS(ptr noundef %0, ptr noundef %1) #0 {
  %3 = alloca ptr, align 8
  %4 = alloca ptr, align 8
  %5 = alloca ptr, align 8
  %6 = alloca ptr, align 8
  %7 = alloca ptr, align 8
  %8 = alloca ptr, align 8
  %9 = alloca i64, align 8
  %10 = alloca i64, align 8
  %11 = alloca ptr, align 8
  %12 = alloca ptr, align 8
  %13 = alloca ptr, align 8
  store ptr %0, ptr %3, align 8
  store ptr %1, ptr %4, align 8
  %14 = load ptr, ptr %3, align 8
  %15 = getelementptr inbounds %struct._zend_execute_data, ptr %14, i32 0, i32 4
  store ptr %15, ptr %5, align 8
  %16 = load ptr, ptr %3, align 8
  %17 = getelementptr inbounds %struct._zend_execute_data, ptr %16, i32 0, i32 4
  %18 = getelementptr inbounds %struct._zval_struct, ptr %17, i32 0, i32 2
  %19 = load i32, ptr %18, align 4
  %20 = call i32 (i32, ptr, ...) @zend_parse_parameters(i32 noundef %19, ptr noundef @.str.11, ptr noundef %11, ptr noundef %9, ptr noundef %12, ptr noundef %10)
  %21 = icmp eq i32 %20, -1
  br i1 %21, label %22, label %27

22:                                               ; preds = %2
  br label %23

23:                                               ; preds = %22
  %24 = load ptr, ptr getelementptr inbounds (%struct._zend_executor_globals, ptr @executor_globals, i32 0, i32 50), align 8
  %25 = icmp ne ptr %24, null
  call void @llvm.assume(i1 %25)
  br label %100

26:                                               ; No predecessors!
  br label %27

27:                                               ; preds = %26, %2
  %28 = load ptr, ptr %5, align 8
  %29 = getelementptr inbounds %struct._zval_struct, ptr %28, i32 0, i32 0
  %30 = load ptr, ptr %29, align 8
  %31 = call ptr @php_dom_obj_from_obj(ptr noundef %30)
  store ptr %31, ptr %8, align 8
  %32 = load ptr, ptr %8, align 8
  %33 = getelementptr inbounds %struct._dom_object, ptr %32, i32 0, i32 0
  %34 = load ptr, ptr %33, align 8
  %35 = icmp eq ptr %34, null
  %36 = xor i1 %35, true
  %37 = xor i1 %36, true
  %38 = zext i1 %37 to i32
  %39 = sext i32 %38 to i64
  %40 = icmp ne i64 %39, 0
  br i1 %40, label %41, label %54

41:                                               ; preds = %27
  %42 = load ptr, ptr %8, align 8
  %43 = getelementptr inbounds %struct._dom_object, ptr %42, i32 0, i32 3
  %44 = getelementptr inbounds %struct._zend_object, ptr %43, i32 0, i32 2
  %45 = load ptr, ptr %44, align 8
  %46 = getelementptr inbounds %struct._zend_class_entry, ptr %45, i32 0, i32 1
  %47 = load ptr, ptr %46, align 8
  %48 = getelementptr inbounds %struct._zend_string, ptr %47, i32 0, i32 3
  %49 = getelementptr inbounds [1 x i8], ptr %48, i64 0, i64 0
  call void (ptr, ptr, ...) @zend_throw_error(ptr noundef null, ptr noundef @.str.5, ptr noundef %49)
  br label %50

50:                                               ; preds = %41
  %51 = load ptr, ptr getelementptr inbounds (%struct._zend_executor_globals, ptr @executor_globals, i32 0, i32 50), align 8
  %52 = icmp ne ptr %51, null
  call void @llvm.assume(i1 %52)
  br label %100

53:                                               ; No predecessors!
  br label %54

54:                                               ; preds = %53, %27
  %55 = load ptr, ptr %8, align 8
  %56 = getelementptr inbounds %struct._dom_object, ptr %55, i32 0, i32 0
  %57 = load ptr, ptr %56, align 8
  %58 = getelementptr inbounds %struct._php_libxml_node_ptr, ptr %57, i32 0, i32 0
  %59 = load ptr, ptr %58, align 8
  store ptr %59, ptr %6, align 8
  %60 = load ptr, ptr %6, align 8
  %61 = load ptr, ptr %12, align 8
  %62 = load ptr, ptr %11, align 8
  %63 = call ptr @xmlGetNsProp(ptr noundef %60, ptr noundef %61, ptr noundef %62)
  store ptr %63, ptr %13, align 8
  %64 = load ptr, ptr %13, align 8
  %65 = icmp ne ptr %64, null
  br i1 %65, label %66, label %75

66:                                               ; preds = %54
  %67 = load ptr, ptr @xmlFree, align 8
  %68 = load ptr, ptr %13, align 8
  call void %67(ptr noundef %68)
  br label %69

69:                                               ; preds = %66
  br label %70

70:                                               ; preds = %69
  %71 = load ptr, ptr %4, align 8
  %72 = getelementptr inbounds %struct._zval_struct, ptr %71, i32 0, i32 1
  store i32 3, ptr %72, align 8
  br label %73

73:                                               ; preds = %70
  br label %100

74:                                               ; No predecessors!
  br label %94

75:                                               ; preds = %54
  %76 = load ptr, ptr %11, align 8
  %77 = call i32 @xmlStrEqual(ptr noundef %76, ptr noundef @.str.12)
  %78 = icmp ne i32 %77, 0
  br i1 %78, label %79, label %93

79:                                               ; preds = %75
  %80 = load ptr, ptr %6, align 8
  %81 = load ptr, ptr %12, align 8
  %82 = call ptr @dom_get_nsdecl(ptr noundef %80, ptr noundef %81)
  store ptr %82, ptr %7, align 8
  %83 = load ptr, ptr %7, align 8
  %84 = icmp ne ptr %83, null
  br i1 %84, label %85, label %92

85:                                               ; preds = %79
  br label %86

86:                                               ; preds = %85
  br label %87

87:                                               ; preds = %86
  %88 = load ptr, ptr %4, align 8
  %89 = getelementptr inbounds %struct._zval_struct, ptr %88, i32 0, i32 1
  store i32 3, ptr %89, align 8
  br label %90

90:                                               ; preds = %87
  br label %100

91:                                               ; No predecessors!
  br label %92

92:                                               ; preds = %91, %79
  br label %93

93:                                               ; preds = %92, %75
  br label %94

94:                                               ; preds = %93, %74
  br label %95

95:                                               ; preds = %94
  br label %96

96:                                               ; preds = %95
  %97 = load ptr, ptr %4, align 8
  %98 = getelementptr inbounds %struct._zval_struct, ptr %97, i32 0, i32 1
  store i32 2, ptr %98, align 8
  br label %99

99:                                               ; preds = %96
  br label %100

100:                                              ; preds = %99, %90, %73, %50, %23
  ret void
}