; Function Attrs: nounwind uwtable
define hidden void @zim_DOMElement_hasAttributeNS(ptr nocapture noundef readonly %0, ptr nocapture noundef writeonly %1) local_unnamed_addr #0 {
  %3 = alloca i64, align 8
  %4 = alloca i64, align 8
  %5 = alloca ptr, align 8
  %6 = alloca ptr, align 8
  %7 = getelementptr inbounds i8, ptr %0, i64 44
  %8 = load i32, ptr %7, align 4
  %9 = call i32 (i32, ptr, ...) @zend_parse_parameters(i32 noundef %8, ptr noundef nonnull @.str.11, ptr noundef nonnull %5, ptr noundef nonnull %3, ptr noundef nonnull %6, ptr noundef nonnull %4) #8
  %10 = icmp eq i32 %9, -1
  br i1 %10, label %11, label %14

11:                                               ; preds = %2
  %12 = load ptr, ptr getelementptr inbounds (%struct._zend_executor_globals, ptr @executor_globals, i64 0, i32 50), align 8
  %13 = icmp ne ptr %12, null
  call void @llvm.assume(i1 %13)
  br label %46

14:                                               ; preds = %2
  %15 = getelementptr inbounds i8, ptr %0, i64 32
  %16 = load ptr, ptr %15, align 8
  %17 = getelementptr inbounds i8, ptr %16, i64 -24
  %18 = load ptr, ptr %17, align 8
  %19 = icmp eq ptr %18, null
  br i1 %19, label %20, label %28

20:                                               ; preds = %14
  %21 = getelementptr inbounds i8, ptr %16, i64 16
  %22 = load ptr, ptr %21, align 8
  %23 = getelementptr inbounds i8, ptr %22, i64 8
  %24 = load ptr, ptr %23, align 8
  %25 = getelementptr inbounds i8, ptr %24, i64 24
  call void (ptr, ptr, ...) @zend_throw_error(ptr noundef null, ptr noundef nonnull @.str.5, ptr noundef nonnull %25) #8
  %26 = load ptr, ptr getelementptr inbounds (%struct._zend_executor_globals, ptr @executor_globals, i64 0, i32 50), align 8
  %27 = icmp ne ptr %26, null
  call void @llvm.assume(i1 %27)
  br label %46

28:                                               ; preds = %14
  %29 = load ptr, ptr %18, align 8
  %30 = load ptr, ptr %6, align 8
  %31 = load ptr, ptr %5, align 8
  %32 = call ptr @xmlGetNsProp(ptr noundef %29, ptr noundef %30, ptr noundef %31) #8
  %.not = icmp eq ptr %32, null
  br i1 %.not, label %36, label %33

33:                                               ; preds = %28
  %34 = load ptr, ptr @xmlFree, align 8
  call void %34(ptr noundef nonnull %32) #8
  %35 = getelementptr inbounds i8, ptr %1, i64 8
  store i32 3, ptr %35, align 8
  br label %46

36:                                               ; preds = %28
  %37 = load ptr, ptr %5, align 8
  %38 = call i32 @xmlStrEqual(ptr noundef %37, ptr noundef nonnull @.str.12) #8
  %.not15 = icmp eq i32 %38, 0
  br i1 %.not15, label %44, label %39

39:                                               ; preds = %36
  %40 = load ptr, ptr %6, align 8
  %41 = call ptr @dom_get_nsdecl(ptr noundef %29, ptr noundef %40) #8
  %.not16 = icmp eq ptr %41, null
  br i1 %.not16, label %44, label %42

42:                                               ; preds = %39
  %43 = getelementptr inbounds i8, ptr %1, i64 8
  store i32 3, ptr %43, align 8
  br label %46

44:                                               ; preds = %36, %39
  %45 = getelementptr inbounds i8, ptr %1, i64 8
  store i32 2, ptr %45, align 8
  br label %46

46:                                               ; preds = %44, %42, %33, %20, %11
  ret void
}